target datalayout = "e-m:e-p270:32:32-p271:32:32-p272:64:64-i64:64-i128:128-f80:128-n8:16:32:64-S128"
target triple = "x86_64-pc-linux-gnu"

%struct.Mv = type { i32, i32 }

; Function Attrs: alwaysinline nounwind willreturn memory(none) uwtable
define internal i32 @av_clip_intp2_c(i32 noundef %0, i32 noundef %1) #2 {
  %3 = alloca i32, align 4
  %4 = alloca i32, align 4
  %5 = alloca i32, align 4
  store i32 %0, ptr %4, align 4, !tbaa !9
  store i32 %1, ptr %5, align 4, !tbaa !9
  %6 = load i32, ptr %4, align 4, !tbaa !9
  %7 = load i32, ptr %5, align 4, !tbaa !9
  %8 = shl i32 1, %7
  %9 = add i32 %6, %8
  %10 = load i32, ptr %5, align 4, !tbaa !9
  %11 = shl i32 2, %10
  %12 = sub i32 %11, 1
  %13 = xor i32 %12, -1
  %14 = and i32 %9, %13
  %15 = icmp ne i32 %14, 0
  br i1 %15, label %16, label %23

16:                                               ; preds = %2
  %17 = load i32, ptr %4, align 4, !tbaa !9
  %18 = ashr i32 %17, 31
  %19 = load i32, ptr %5, align 4, !tbaa !9
  %20 = shl i32 1, %19
  %21 = sub nsw i32 %20, 1
  %22 = xor i32 %18, %21
  store i32 %22, ptr %3, align 4
  br label %25

23:                                               ; preds = %2
  %24 = load i32, ptr %4, align 4, !tbaa !9
  store i32 %24, ptr %3, align 4
  br label %25

25:                                               ; preds = %23, %16
  %26 = load i32, ptr %3, align 4
  ret i32 %26
}

; Function Attrs: alwaysinline nounwind willreturn memory(none) uwtable
define internal signext i8 @av_clip_int8_c(i32 noundef %0) #2 {
  %2 = alloca i8, align 1
  %3 = alloca i32, align 4
  store i32 %0, ptr %3, align 4, !tbaa !9
  %4 = load i32, ptr %3, align 4, !tbaa !9
  %5 = add i32 %4, 128
  %6 = and i32 %5, -256
  %7 = icmp ne i32 %6, 0
  br i1 %7, label %8, label %13

8:                                                ; preds = %1
  %9 = load i32, ptr %3, align 4, !tbaa !9
  %10 = ashr i32 %9, 31
  %11 = xor i32 %10, 127
  %12 = trunc i32 %11 to i8
  store i8 %12, ptr %2, align 1
  br label %16

13:                                               ; preds = %1
  %14 = load i32, ptr %3, align 4, !tbaa !9
  %15 = trunc i32 %14 to i8
  store i8 %15, ptr %2, align 1
  br label %16

16:                                               ; preds = %13, %8
  %17 = load i8, ptr %2, align 1
  ret i8 %17
}

; Function Attrs: nounwind uwtable
define void @ff_vvc_mv_scale(ptr noundef %0, ptr noundef %1, i32 noundef %2, i32 noundef %3) #0 {
  %5 = alloca ptr, align 8
  %6 = alloca ptr, align 8
  %7 = alloca i32, align 4
  %8 = alloca i32, align 4
  %9 = alloca i32, align 4
  %10 = alloca i32, align 4
  store ptr %0, ptr %5, align 8, !tbaa !4
  store ptr %1, ptr %6, align 8, !tbaa !4
  store i32 %2, ptr %7, align 4, !tbaa !9
  store i32 %3, ptr %8, align 4, !tbaa !9
  call void @llvm.lifetime.start.p0(i64 4, ptr %9) #9
  call void @llvm.lifetime.start.p0(i64 4, ptr %10) #9
  %11 = load i32, ptr %7, align 4, !tbaa !9
  %12 = call signext i8 @av_clip_int8_c(i32 noundef %11) #10
  %13 = sext i8 %12 to i32
  store i32 %13, ptr %7, align 4, !tbaa !9
  %14 = load i32, ptr %8, align 4, !tbaa !9
  %15 = call signext i8 @av_clip_int8_c(i32 noundef %14) #10
  %16 = sext i8 %15 to i32
  store i32 %16, ptr %8, align 4, !tbaa !9
  %17 = load i32, ptr %7, align 4, !tbaa !9
  %18 = call i32 @llvm.abs.i32(i32 %17, i1 true)
  %19 = ashr i32 %18, 1
  %20 = add nsw i32 16384, %19
  %21 = load i32, ptr %7, align 4, !tbaa !9
  %22 = sdiv i32 %20, %21
  store i32 %22, ptr %9, align 4, !tbaa !9
  %23 = load i32, ptr %8, align 4, !tbaa !9
  %24 = load i32, ptr %9, align 4, !tbaa !9
  %25 = mul nsw i32 %23, %24
  %26 = add nsw i32 %25, 32
  %27 = ashr i32 %26, 6
  %28 = call i32 @av_clip_intp2_c(i32 noundef %27, i32 noundef 12) #10
  store i32 %28, ptr %10, align 4, !tbaa !9
  %29 = load i32, ptr %10, align 4, !tbaa !9
  %30 = load ptr, ptr %6, align 8, !tbaa !4
  %31 = getelementptr inbounds nuw %struct.Mv, ptr %30, i32 0, i32 0
  %32 = load i32, ptr %31, align 4, !tbaa !11
  %33 = mul nsw i32 %29, %32
  %34 = add nsw i32 %33, 127
  %35 = load i32, ptr %10, align 4, !tbaa !9
  %36 = load ptr, ptr %6, align 8, !tbaa !4
  %37 = getelementptr inbounds nuw %struct.Mv, ptr %36, i32 0, i32 0
  %38 = load i32, ptr %37, align 4, !tbaa !11
  %39 = mul nsw i32 %35, %38
  %40 = icmp slt i32 %39, 0
  %41 = zext i1 %40 to i32
  %42 = add nsw i32 %34, %41
  %43 = ashr i32 %42, 8
  %44 = call i32 @av_clip_intp2_c(i32 noundef %43, i32 noundef 17) #10
  %45 = load ptr, ptr %5, align 8, !tbaa !4
  %46 = getelementptr inbounds nuw %struct.Mv, ptr %45, i32 0, i32 0
  store i32 %44, ptr %46, align 4, !tbaa !11
  %47 = load i32, ptr %10, align 4, !tbaa !9
  %48 = load ptr, ptr %6, align 8, !tbaa !4
  %49 = getelementptr inbounds nuw %struct.Mv, ptr %48, i32 0, i32 1
  %50 = load i32, ptr %49, align 4, !tbaa !13
  %51 = mul nsw i32 %47, %50
  %52 = add nsw i32 %51, 127
  %53 = load i32, ptr %10, align 4, !tbaa !9
  %54 = load ptr, ptr %6, align 8, !tbaa !4
  %55 = getelementptr inbounds nuw %struct.Mv, ptr %54, i32 0, i32 1
  %56 = load i32, ptr %55, align 4, !tbaa !13
  %57 = mul nsw i32 %53, %56
  %58 = icmp slt i32 %57, 0
  %59 = zext i1 %58 to i32
  %60 = add nsw i32 %52, %59
  %61 = ashr i32 %60, 8
  %62 = call i32 @av_clip_intp2_c(i32 noundef %61, i32 noundef 17) #10
  %63 = load ptr, ptr %5, align 8, !tbaa !4
  %64 = getelementptr inbounds nuw %struct.Mv, ptr %63, i32 0, i32 1
  store i32 %62, ptr %64, align 4, !tbaa !13
  call void @llvm.lifetime.end.p0(i64 4, ptr %10) #9
  call void @llvm.lifetime.end.p0(i64 4, ptr %9) #9
  ret void
}