; Function Attrs: mustprogress nofree norecurse nosync nounwind willreturn memory(argmem: readwrite) uwtable
define void @ff_vvc_mv_scale(ptr noundef writeonly captures(none) initializes((0, 8)) %0, ptr noundef readonly captures(none) %1, i32 noundef %2, i32 noundef %3) local_unnamed_addr #0 {
  %5 = tail call i32 @llvm.smax.i32(i32 %2, i32 -128)
  %6 = tail call i32 @llvm.smin.i32(i32 %5, i32 127)
  %7 = tail call i32 @llvm.smax.i32(i32 %3, i32 -128)
  %8 = tail call i32 @llvm.smin.i32(i32 %7, i32 127)
  %9 = tail call i32 @llvm.abs.i32(i32 %6, i1 true)
  %10 = lshr i32 %9, 1
  %11 = trunc nuw nsw i32 %10 to i16
  %.lhs.trunc = add nuw nsw i16 %11, 16384
  %.rhs.trunc = trunc nsw i32 %6 to i16
  %12 = sdiv i16 %.lhs.trunc, %.rhs.trunc
  %.sext = sext i16 %12 to i32
  %13 = mul nsw i32 %8, %.sext
  %14 = add nsw i32 %13, 32
  %15 = ashr i32 %14, 6
  %16 = add nsw i32 %15, 4096
  %.not.i18 = icmp ult i32 %16, 8192
  %17 = icmp sgt i32 %13, -33
  %18 = select i1 %17, i32 4095, i32 -4096
  %.0.i19 = select i1 %.not.i18, i32 %15, i32 %18
  %19 = load i32, ptr %1, align 4, !tbaa !4
  %20 = mul nsw i32 %.0.i19, %19
  %21 = add nsw i32 %20, 127
  %.lobit = lshr i32 %20, 31
  %22 = add nsw i32 %21, %.lobit
  %23 = ashr i32 %22, 8
  %24 = add nsw i32 %23, 131072
  %.not.i20 = icmp ult i32 %24, 262144
  %25 = icmp sgt i32 %22, -1
  %26 = select i1 %25, i32 131071, i32 -131072
  %.0.i21 = select i1 %.not.i20, i32 %23, i32 %26
  store i32 %.0.i21, ptr %0, align 4, !tbaa !4
  %27 = getelementptr inbounds nuw i8, ptr %1, i64 4
  %28 = load i32, ptr %27, align 4, !tbaa !9
  %29 = mul nsw i32 %.0.i19, %28
  %30 = add nsw i32 %29, 127
  %.lobit15 = lshr i32 %29, 31
  %31 = add nsw i32 %30, %.lobit15
  %32 = ashr i32 %31, 8
  %33 = add nsw i32 %32, 131072
  %.not.i22 = icmp ult i32 %33, 262144
  %34 = icmp sgt i32 %31, -1
  %35 = select i1 %34, i32 131071, i32 -131072
  %.0.i23 = select i1 %.not.i22, i32 %32, i32 %35
  %36 = getelementptr inbounds nuw i8, ptr %0, i64 4
  store i32 %.0.i23, ptr %36, align 4, !tbaa !9
  ret void
}